target datalayout = "e-m:e-p270:32:32-p271:32:32-p272:64:64-i64:64-i128:128-f80:128-n8:16:32:64-S128"
target triple = "x86_64-pc-linux-gnu"

; Function Attrs: nounwind sspstrong uwtable
define internal i64 @pm_encoding_cp949_char_width(ptr noundef %0, i64 noundef %1) #0 {
  %3 = alloca i64, align 8
  %4 = alloca ptr, align 8
  %5 = alloca i64, align 8
  store ptr %0, ptr %4, align 8, !tbaa !7
  store i64 %1, ptr %5, align 8, !tbaa !12
  %6 = load ptr, ptr %4, align 8, !tbaa !7
  %7 = load i8, ptr %6, align 1, !tbaa !16
  %8 = zext i8 %7 to i32
  %9 = icmp sle i32 %8, 128
  br i1 %9, label %10, label %11

10:                                               ; preds = %2
  store i64 1, ptr %3, align 8
  br label %64

11:                                               ; preds = %2
  %12 = load i64, ptr %5, align 8, !tbaa !12
  %13 = icmp sgt i64 %12, 1
  br i1 %13, label %14, label %63

14:                                               ; preds = %11
  %15 = load ptr, ptr %4, align 8, !tbaa !7
  %16 = getelementptr i8, ptr %15, i64 0
  %17 = load i8, ptr %16, align 1, !tbaa !16
  %18 = zext i8 %17 to i32
  %19 = icmp sge i32 %18, 129
  br i1 %19, label %20, label %63

20:                                               ; preds = %14
  %21 = load ptr, ptr %4, align 8, !tbaa !7
  %22 = getelementptr i8, ptr %21, i64 0
  %23 = load i8, ptr %22, align 1, !tbaa !16
  %24 = zext i8 %23 to i32
  %25 = icmp sle i32 %24, 254
  br i1 %25, label %26, label %63

26:                                               ; preds = %20
  %27 = load ptr, ptr %4, align 8, !tbaa !7
  %28 = getelementptr i8, ptr %27, i64 1
  %29 = load i8, ptr %28, align 1, !tbaa !16
  %30 = zext i8 %29 to i32
  %31 = icmp sge i32 %30, 65
  br i1 %31, label %32, label %38

32:                                               ; preds = %26
  %33 = load ptr, ptr %4, align 8, !tbaa !7
  %34 = getelementptr i8, ptr %33, i64 1
  %35 = load i8, ptr %34, align 1, !tbaa !16
  %36 = zext i8 %35 to i32
  %37 = icmp sle i32 %36, 90
  br i1 %37, label %62, label %38

38:                                               ; preds = %32, %26
  %39 = load ptr, ptr %4, align 8, !tbaa !7
  %40 = getelementptr i8, ptr %39, i64 1
  %41 = load i8, ptr %40, align 1, !tbaa !16
  %42 = zext i8 %41 to i32
  %43 = icmp sge i32 %42, 97
  br i1 %43, label %44, label %50

44:                                               ; preds = %38
  %45 = load ptr, ptr %4, align 8, !tbaa !7
  %46 = getelementptr i8, ptr %45, i64 1
  %47 = load i8, ptr %46, align 1, !tbaa !16
  %48 = zext i8 %47 to i32
  %49 = icmp sle i32 %48, 122
  br i1 %49, label %62, label %50

50:                                               ; preds = %44, %38
  %51 = load ptr, ptr %4, align 8, !tbaa !7
  %52 = getelementptr i8, ptr %51, i64 1
  %53 = load i8, ptr %52, align 1, !tbaa !16
  %54 = zext i8 %53 to i32
  %55 = icmp sge i32 %54, 129
  br i1 %55, label %56, label %63

56:                                               ; preds = %50
  %57 = load ptr, ptr %4, align 8, !tbaa !7
  %58 = getelementptr i8, ptr %57, i64 1
  %59 = load i8, ptr %58, align 1, !tbaa !16
  %60 = zext i8 %59 to i32
  %61 = icmp sle i32 %60, 254
  br i1 %61, label %62, label %63

62:                                               ; preds = %56, %44, %32
  store i64 2, ptr %3, align 8
  br label %64

63:                                               ; preds = %56, %50, %20, %14, %11
  store i64 0, ptr %3, align 8
  br label %64

64:                                               ; preds = %63, %62, %10
  %65 = load i64, ptr %3, align 8
  ret i64 %65
}