; Function Attrs: mustprogress nofree norecurse nosync nounwind sspstrong willreturn memory(argmem: read) uwtable
define internal range(i64 0, 3) i64 @pm_encoding_cp949_char_width(ptr noundef readonly captures(none) %0, i64 noundef %1) #2 {
  %3 = load i8, ptr %0, align 1, !tbaa !7
  %4 = icmp ult i8 %3, -127
  br i1 %4, label %14, label %5

5:                                                ; preds = %2
  %6 = icmp slt i64 %1, 2
  %.not = icmp eq i8 %3, -1
  %or.cond = or i1 %6, %.not
  br i1 %or.cond, label %13, label %7

7:                                                ; preds = %5
  %8 = getelementptr i8, ptr %0, i64 1
  %9 = load i8, ptr %8, align 1, !tbaa !7
  %10 = and i8 %9, -33
  %11 = add i8 %10, -91
  %or.cond18 = icmp ult i8 %11, -26
  %12 = add i8 %9, 1
  %or.cond17 = icmp ult i8 %12, -126
  %or.cond19 = and i1 %or.cond17, %or.cond18
  br i1 %or.cond19, label %13, label %14

13:                                               ; preds = %7, %5
  br label %14

14:                                               ; preds = %7, %2, %13
  %.0 = phi i64 [ 0, %13 ], [ 1, %2 ], [ 2, %7 ]
  ret i64 %.0
}